target datalayout = "e-m:e-p270:32:32-p271:32:32-p272:64:64-i64:64-i128:128-f80:128-n8:16:32:64-S128"
target triple = "x86_64-pc-linux-gnu"

; Function Attrs: nounwind ssp uwtable
define hidden i32 @_sodium_ge25519_is_canonical(ptr noundef %0) #0 {
  %2 = alloca ptr, align 8
  %3 = alloca i8, align 1
  %4 = alloca i8, align 1
  %5 = alloca i32, align 4
  store ptr %0, ptr %2, align 8
  call void @llvm.lifetime.start.p0(i64 1, ptr %3) #8
  call void @llvm.lifetime.start.p0(i64 1, ptr %4) #8
  call void @llvm.lifetime.start.p0(i64 4, ptr %5) #8
  %6 = load ptr, ptr %2, align 8
  %7 = getelementptr i8, ptr %6, i64 31
  %8 = load i8, ptr %7, align 1
  %9 = zext i8 %8 to i32
  %10 = and i32 %9, 127
  %11 = xor i32 %10, 127
  %12 = trunc i32 %11 to i8
  store i8 %12, ptr %3, align 1
  store i32 30, ptr %5, align 4
  br label %13

13:                                               ; preds = %28, %1
  %14 = load i32, ptr %5, align 4
  %15 = icmp ugt i32 %14, 0
  br i1 %15, label %16, label %31

16:                                               ; preds = %13
  %17 = load ptr, ptr %2, align 8
  %18 = load i32, ptr %5, align 4
  %19 = zext i32 %18 to i64
  %20 = getelementptr i8, ptr %17, i64 %19
  %21 = load i8, ptr %20, align 1
  %22 = zext i8 %21 to i32
  %23 = xor i32 %22, 255
  %24 = load i8, ptr %3, align 1
  %25 = zext i8 %24 to i32
  %26 = or i32 %25, %23
  %27 = trunc i32 %26 to i8
  store i8 %27, ptr %3, align 1
  br label %28

28:                                               ; preds = %16
  %29 = load i32, ptr %5, align 4
  %30 = add i32 %29, -1
  store i32 %30, ptr %5, align 4
  br label %13, !llvm.loop !34

31:                                               ; preds = %13
  %32 = load i8, ptr %3, align 1
  %33 = zext i8 %32 to i32
  %34 = sub i32 %33, 1
  %35 = lshr i32 %34, 8
  %36 = trunc i32 %35 to i8
  store i8 %36, ptr %3, align 1
  %37 = load ptr, ptr %2, align 8
  %38 = getelementptr i8, ptr %37, i64 0
  %39 = load i8, ptr %38, align 1
  %40 = zext i8 %39 to i32
  %41 = sub i32 236, %40
  %42 = lshr i32 %41, 8
  %43 = trunc i32 %42 to i8
  store i8 %43, ptr %4, align 1
  %44 = load i8, ptr %3, align 1
  %45 = zext i8 %44 to i32
  %46 = load i8, ptr %4, align 1
  %47 = zext i8 %46 to i32
  %48 = and i32 %45, %47
  %49 = and i32 %48, 1
  %50 = sub i32 1, %49
  call void @llvm.lifetime.end.p0(i64 4, ptr %5) #8
  call void @llvm.lifetime.end.p0(i64 1, ptr %4) #8
  call void @llvm.lifetime.end.p0(i64 1, ptr %3) #8
  ret i32 %50
}