; Function Attrs: nofree norecurse nosync nounwind ssp memory(argmem: read) uwtable
define hidden range(i32 0, 2) i32 @_sodium_ge25519_is_canonical(ptr noundef readonly captures(none) %0) local_unnamed_addr #5 {
  %2 = getelementptr i8, ptr %0, i64 31
  %3 = load i8, ptr %2, align 1
  %4 = and i8 %3, 127
  %5 = xor i8 %4, 127
  br label %6

6:                                                ; preds = %1, %6
  %indvars.iv = phi i64 [ 30, %1 ], [ %indvars.iv.next, %6 ]
  %.0910 = phi i8 [ %5, %1 ], [ %10, %6 ]
  %7 = getelementptr i8, ptr %0, i64 %indvars.iv
  %8 = load i8, ptr %7, align 1
  %9 = xor i8 %8, -1
  %10 = or i8 %.0910, %9
  %indvars.iv.next = add nsw i64 %indvars.iv, -1
  %.not = icmp eq i64 %indvars.iv.next, 0
  br i1 %.not, label %11, label %6, !llvm.loop !36

11:                                               ; preds = %6
  %12 = zext i8 %10 to i32
  %13 = add nuw nsw i32 %12, 511
  %14 = load i8, ptr %0, align 1
  %15 = zext i8 %14 to i32
  %16 = sub nsw i32 236, %15
  %17 = and i32 %16, %13
  %.mask = lshr i32 %17, 8
  %.mask.lobit = and i32 %.mask, 1
  %18 = xor i32 %.mask.lobit, 1
  ret i32 %18
}